; Function Attrs: nounwind uwtable
define internal fastcc void @expert_dlt_buffer_too_short(ptr noundef %0, ptr noundef %1, ptr noundef %2, i32 noundef %3, i32 noundef %4) unnamed_addr #2 {
  %.not = icmp eq ptr %2, null
  br i1 %.not, label %8, label %6

6:                                                ; preds = %5
  %7 = tail call ptr @proto_tree_add_expert(ptr noundef %0, ptr noundef %1, ptr noundef nonnull @ei_dlt_buffer_too_short, ptr noundef nonnull %2, i32 noundef %3, i32 noundef %4) #7
  br label %8

8:                                                ; preds = %6, %5
  %9 = getelementptr inbounds nuw i8, ptr %1, i64 8
  %10 = load ptr, ptr %9, align 8
  tail call void @col_append_str(ptr noundef %10, i32 noundef 25, ptr noundef nonnull @.str.156) #7
  ret void
}